target datalayout = "e-m:e-p270:32:32-p271:32:32-p272:64:64-i64:64-i128:128-f80:128-n8:16:32:64-S128"
target triple = "x86_64-pc-linux-gnu"

%"class.std::__cxx11::basic_string" = type { %"struct.std::__cxx11::basic_string<char>::_Alloc_hider", i64, %union.anon }
%"struct.std::__cxx11::basic_string<char>::_Alloc_hider" = type { ptr }
%union.anon = type { i64, [8 x i8] }
%"class.std::vector" = type { %"struct.std::_Vector_base" }
%"struct.std::_Vector_base" = type { %"struct.std::_Vector_base<ncnn::Mat, std::allocator<ncnn::Mat>>::_Vector_impl" }
%"struct.std::_Vector_base<ncnn::Mat, std::allocator<ncnn::Mat>>::_Vector_impl" = type { %"struct.std::_Vector_base<ncnn::Mat, std::allocator<ncnn::Mat>>::_Vector_impl_data" }
%"struct.std::_Vector_base<ncnn::Mat, std::allocator<ncnn::Mat>>::_Vector_impl_data" = type { ptr, ptr, ptr }
%struct.__ncnn_layer_t = type { ptr, ptr, ptr, ptr, ptr, ptr, ptr, ptr, ptr }
%class.Layer_c_api = type { %"class.ncnn::Layer", ptr }
%"class.ncnn::Layer" = type { ptr, i8, i8, i8, i8, i8, i8, i8, i8, i8, i8, i8, i8, i8, i8, i8, i8, i8, i8, i8, i8, i32, ptr, i32, %"class.std::__cxx11::basic_string", %"class.std::__cxx11::basic_string", %"class.std::vector.3", %"class.std::vector.3", %"class.std::vector", %"class.std::vector" }
%"class.std::vector.3" = type { %"struct.std::_Vector_base.4" }
%"struct.std::_Vector_base.4" = type { %"struct.std::_Vector_base<int, std::allocator<int>>::_Vector_impl" }
%"struct.std::_Vector_base<int, std::allocator<int>>::_Vector_impl" = type { %"struct.std::_Vector_base<int, std::allocator<int>>::_Vector_impl_data" }
%"struct.std::_Vector_base<int, std::allocator<int>>::_Vector_impl_data" = type { ptr, ptr, ptr }

; Function Attrs: mustprogress uwtable
define linkonce_odr hidden void @_ZN11Layer_c_apiC2EP14__ncnn_layer_t(ptr noundef nonnull align 8 dereferenceable(216) %0, ptr noundef %1) unnamed_addr #1 comdat align 2 {
  %3 = alloca ptr, align 8
  %4 = alloca ptr, align 8
  store ptr %0, ptr %3, align 8
  store ptr %1, ptr %4, align 8
  %5 = load ptr, ptr %3, align 8
  call void @_ZN4ncnn5LayerC2Ev(ptr noundef nonnull align 8 dereferenceable(208) %5)
  store ptr getelementptr inbounds inrange(-16, 80) ({ [12 x ptr] }, ptr @_ZTV11Layer_c_api, i32 0, i32 0, i32 2), ptr %5, align 8
  %6 = load ptr, ptr %4, align 8
  %7 = getelementptr inbounds nuw %class.Layer_c_api, ptr %5, i32 0, i32 1
  store ptr %6, ptr %7, align 8
  ret void
}

; Function Attrs: mustprogress uwtable
define hidden ptr @ncnn_layer_create() #1 personality ptr @__gxx_personality_v0 {
  %1 = alloca ptr, align 8
  %2 = alloca ptr, align 8
  %3 = alloca i32, align 4
  %4 = call noalias ptr @malloc(i64 noundef 72) #12
  store ptr %4, ptr %1, align 8
  %5 = call noalias noundef nonnull ptr @_Znwm(i64 noundef 216) #13
  %6 = load ptr, ptr %1, align 8
  invoke void @_ZN11Layer_c_apiC2EP14__ncnn_layer_t(ptr noundef nonnull align 8 dereferenceable(216) %5, ptr noundef %6)
          to label %7 unwind label %27

7:                                                ; preds = %0
  %8 = load ptr, ptr %1, align 8
  %9 = getelementptr inbounds nuw %struct.__ncnn_layer_t, ptr %8, i32 0, i32 0
  store ptr %5, ptr %9, align 8
  %10 = load ptr, ptr %1, align 8
  %11 = getelementptr inbounds nuw %struct.__ncnn_layer_t, ptr %10, i32 0, i32 1
  store ptr @_ZL23__ncnn_Layer_load_paramP14__ncnn_layer_tP18__ncnn_paramdict_t, ptr %11, align 8
  %12 = load ptr, ptr %1, align 8
  %13 = getelementptr inbounds nuw %struct.__ncnn_layer_t, ptr %12, i32 0, i32 2
  store ptr @_ZL23__ncnn_Layer_load_modelP14__ncnn_layer_tP17__ncnn_modelbin_t, ptr %13, align 8
  %14 = load ptr, ptr %1, align 8
  %15 = getelementptr inbounds nuw %struct.__ncnn_layer_t, ptr %14, i32 0, i32 3
  store ptr @_ZL28__ncnn_Layer_create_pipelineP14__ncnn_layer_tP15__ncnn_option_t, ptr %15, align 8
  %16 = load ptr, ptr %1, align 8
  %17 = getelementptr inbounds nuw %struct.__ncnn_layer_t, ptr %16, i32 0, i32 4
  store ptr @_ZL29__ncnn_Layer_destroy_pipelineP14__ncnn_layer_tP15__ncnn_option_t, ptr %17, align 8
  %18 = load ptr, ptr %1, align 8
  %19 = getelementptr inbounds nuw %struct.__ncnn_layer_t, ptr %18, i32 0, i32 5
  store ptr @_ZL22__ncnn_Layer_forward_1P14__ncnn_layer_tP12__ncnn_mat_tPS2_P15__ncnn_option_t, ptr %19, align 8
  %20 = load ptr, ptr %1, align 8
  %21 = getelementptr inbounds nuw %struct.__ncnn_layer_t, ptr %20, i32 0, i32 6
  store ptr @_ZL22__ncnn_Layer_forward_nP14__ncnn_layer_tPKP12__ncnn_mat_tiPS2_iP15__ncnn_option_t, ptr %21, align 8
  %22 = load ptr, ptr %1, align 8
  %23 = getelementptr inbounds nuw %struct.__ncnn_layer_t, ptr %22, i32 0, i32 7
  store ptr @_ZL30__ncnn_Layer_forward_inplace_1P14__ncnn_layer_tP12__ncnn_mat_tP15__ncnn_option_t, ptr %23, align 8
  %24 = load ptr, ptr %1, align 8
  %25 = getelementptr inbounds nuw %struct.__ncnn_layer_t, ptr %24, i32 0, i32 8
  store ptr @_ZL30__ncnn_Layer_forward_inplace_nP14__ncnn_layer_tPP12__ncnn_mat_tiP15__ncnn_option_t, ptr %25, align 8
  %26 = load ptr, ptr %1, align 8
  ret ptr %26

27:                                               ; preds = %0
  %28 = landingpad { ptr, i32 }
          cleanup
  %29 = extractvalue { ptr, i32 } %28, 0
  store ptr %29, ptr %2, align 8
  %30 = extractvalue { ptr, i32 } %28, 1
  store i32 %30, ptr %3, align 4
  call void @_ZdlPvm(ptr noundef %5, i64 noundef 216) #14
  br label %31

31:                                               ; preds = %27
  %32 = load ptr, ptr %2, align 8
  %33 = load i32, ptr %3, align 4
  %34 = insertvalue { ptr, i32 } poison, ptr %32, 0
  %35 = insertvalue { ptr, i32 } %34, i32 %33, 1
  resume { ptr, i32 } %35
}