; Function Attrs: mustprogress uwtable
define hidden noundef ptr @ncnn_layer_create() local_unnamed_addr #1 personality ptr @__gxx_personality_v0 {
  %1 = tail call noalias dereferenceable_or_null(72) ptr @malloc(i64 noundef 72) #23
  %2 = tail call noalias noundef nonnull dereferenceable(216) ptr @_Znwm(i64 noundef 216) #24
  invoke void @_ZN4ncnn5LayerC2Ev(ptr noundef nonnull align 8 dereferenceable(208) %2)
          to label %3 unwind label %13

3:                                                ; preds = %0
  store ptr getelementptr inbounds inrange(-16, 80) (i8, ptr @_ZTV11Layer_c_api, i64 16), ptr %2, align 8
  %4 = getelementptr inbounds nuw i8, ptr %2, i64 208
  store ptr %1, ptr %4, align 8
  store ptr %2, ptr %1, align 8
  %5 = getelementptr inbounds nuw i8, ptr %1, i64 8
  store ptr @_ZL23__ncnn_Layer_load_paramP14__ncnn_layer_tP18__ncnn_paramdict_t, ptr %5, align 8
  %6 = getelementptr inbounds nuw i8, ptr %1, i64 16
  store ptr @_ZL23__ncnn_Layer_load_modelP14__ncnn_layer_tP17__ncnn_modelbin_t, ptr %6, align 8
  %7 = getelementptr inbounds nuw i8, ptr %1, i64 24
  store ptr @_ZL28__ncnn_Layer_create_pipelineP14__ncnn_layer_tP15__ncnn_option_t, ptr %7, align 8
  %8 = getelementptr inbounds nuw i8, ptr %1, i64 32
  store ptr @_ZL29__ncnn_Layer_destroy_pipelineP14__ncnn_layer_tP15__ncnn_option_t, ptr %8, align 8
  %9 = getelementptr inbounds nuw i8, ptr %1, i64 40
  store ptr @_ZL22__ncnn_Layer_forward_1P14__ncnn_layer_tP12__ncnn_mat_tPS2_P15__ncnn_option_t, ptr %9, align 8
  %10 = getelementptr inbounds nuw i8, ptr %1, i64 48
  store ptr @_ZL22__ncnn_Layer_forward_nP14__ncnn_layer_tPKP12__ncnn_mat_tiPS2_iP15__ncnn_option_t, ptr %10, align 8
  %11 = getelementptr inbounds nuw i8, ptr %1, i64 56
  store ptr @_ZL30__ncnn_Layer_forward_inplace_1P14__ncnn_layer_tP12__ncnn_mat_tP15__ncnn_option_t, ptr %11, align 8
  %12 = getelementptr inbounds nuw i8, ptr %1, i64 64
  store ptr @_ZL30__ncnn_Layer_forward_inplace_nP14__ncnn_layer_tPP12__ncnn_mat_tiP15__ncnn_option_t, ptr %12, align 8
  ret ptr %1

13:                                               ; preds = %0
  %14 = landingpad { ptr, i32 }
          cleanup
  tail call void @_ZdlPvm(ptr noundef nonnull %2, i64 noundef 216) #25
  resume { ptr, i32 } %14
}